Certificate:
    Data:
        Version: 3 (0x2)
        Serial Number:
            e0:45:78:5b:ca:2c:2a:85
        Signature Algorithm: sha1WithRSAEncryption
        Issuer: C=AU, ST=QLD, O=Australian Access Federation, OU=Advanced Technical Development, CN=Federation Registry Testing/emailAddress=support@aaf.edu.au
        Validity
            Not Before: Feb  9 03:54:56 2010 GMT
            Not After : Feb  8 03:54:56 2013 GMT
        Subject: C=AU, ST=QLD, O=Australian Access Federation, OU=Advanced Technical Development, CN=Federation Registry Testing/emailAddress=support@aaf.edu.au
        Subject Public Key Info:
            Public Key Algorithm: rsaEncryption
            RSA Public Key: (1024 bit)
                Modulus (1024 bit):
                    00:cb:9c:1b:99:f7:00:3c:64:a2:f3:99:f6:02:94:
                    57:52:d7:8b:da:7e:3d:b2:e9:3d:9c:cc:29:0e:81:
                    cb:b6:94:4a:6c:af:33:f2:e8:20:91:3c:03:4a:5e:
                    14:77:01:1a:75:cc:0c:86:e8:25:de:4b:3e:6f:65:
                    f5:e1:c9:0f:0c:14:e1:3b:bc:2a:ff:f6:87:a3:e8:
                    52:f5:98:a9:6b:f3:fa:4b:30:d5:83:56:06:55:fc:
                    c2:83:03:a0:42:5a:42:5c:60:4f:30:b9:30:e4:f9:
                    9d:bb:a9:43:2f:92:2a:d1:21:83:bd:f0:f5:74:ff:
                    19:cc:df:ca:bd:10:04:fa:59
                Exponent: 65537 (0x10001)
        X509v3 extensions:
            X509v3 Subject Key Identifier: 
                82:80:48:0E:0E:CE:22:A6:FE:E0:E4:C2:5F:BA:0F:E1:8D:E9:5E:BD
            X509v3 Authority Key Identifier: 
                keyid:82:80:48:0E:0E:CE:22:A6:FE:E0:E4:C2:5F:BA:0F:E1:8D:E9:5E:BD
                DirName:/C=AU/ST=QLD/O=Australian Access Federation/OU=Advanced Technical Development/CN=Federation Registry Testing/emailAddress=support@aaf.edu.au
                serial:E0:45:78:5B:CA:2C:2A:85

            X509v3 Basic Constraints: 
                CA:TRUE
    Signature Algorithm: sha1WithRSAEncryption
        01:e6:d6:c8:ed:f8:33:1a:2a:b3:57:4e:9e:f0:b3:c4:16:9a:
        12:6a:da:db:f0:62:2c:ac:71:73:1e:a4:d7:f8:db:e8:cc:10:
        13:40:d0:be:ff:3d:5f:f8:10:e9:b4:fa:fc:8c:e0:ff:f3:92:
        53:32:32:06:92:6c:d1:b9:af:c6:61:f6:9d:2f:55:4c:5f:25:
        9f:76:b7:96:f4:40:93:4b:81:6f:af:dd:d0:fc:e3:15:81:b5:
        eb:fe:78:06:1c:23:78:19:a1:68:3a:cf:b6:76:48:e6:16:fb:
        e5:01:d6:f4:39:8b:e1:e1:e4:7a:6a:c0:b5:a7:1b:99:05:3c:
        80:a2
-----BEGIN CERTIFICATE-----
MIIEBzCCA3CgAwIBAgIJAOBFeFvKLCqFMA0GCSqGSIb3DQEBBQUAMIG0MQswCQYD
VQQGEwJBVTEMMAoGA1UECBMDUUxEMSUwIwYDVQQKExxBdXN0cmFsaWFuIEFjY2Vz
cyBGZWRlcmF0aW9uMScwJQYDVQQLEx5BZHZhbmNlZCBUZWNobmljYWwgRGV2ZWxv
cG1lbnQxJDAiBgNVBAMTG0ZlZGVyYXRpb24gUmVnaXN0cnkgVGVzdGluZzEhMB8G
CSqGSIb3DQEJARYSc3VwcG9ydEBhYWYuZWR1LmF1MB4XDTEwMDIwOTAzNTQ1NloX
DTEzMDIwODAzNTQ1NlowgbQxCzAJBgNVBAYTAkFVMQwwCgYDVQQIEwNRTEQxJTAj
BgNVBAoTHEF1c3RyYWxpYW4gQWNjZXNzIEZlZGVyYXRpb24xJzAlBgNVBAsTHkFk
dmFuY2VkIFRlY2huaWNhbCBEZXZlbG9wbWVudDEkMCIGA1UEAxMbRmVkZXJhdGlv
biBSZWdpc3RyeSBUZXN0aW5nMSEwHwYJKoZIhvcNAQkBFhJzdXBwb3J0QGFhZi5l
ZHUuYXUwgZ8wDQYJKoZIhvcNAQEBBQADgY0AMIGJAoGBAMucG5n3ADxkovOZ9gKU
V1LXi9p+PbLpPZzMKQ6By7aUSmyvM/LoIJE8A0peFHcBGnXMDIboJd5LPm9l9eHJ
DwwU4Tu8Kv/2h6PoUvWYqWvz+ksw1YNWBlX8woMDoEJaQlxgTzC5MOT5nbupQy+S
KtEhg73w9XT/Gczfyr0QBPpZAgMBAAGjggEdMIIBGTAdBgNVHQ4EFgQUgoBIDg7O
Iqb+4OTCX7oP4Y3pXr0wgekGA1UdIwSB4TCB3oAUgoBIDg7OIqb+4OTCX7oP4Y3p
Xr2hgbqkgbcwgbQxCzAJBgNVBAYTAkFVMQwwCgYDVQQIEwNRTEQxJTAjBgNVBAoT
HEF1c3RyYWxpYW4gQWNjZXNzIEZlZGVyYXRpb24xJzAlBgNVBAsTHkFkdmFuY2Vk
IFRlY2huaWNhbCBEZXZlbG9wbWVudDEkMCIGA1UEAxMbRmVkZXJhdGlvbiBSZWdp
c3RyeSBUZXN0aW5nMSEwHwYJKoZIhvcNAQkBFhJzdXBwb3J0QGFhZi5lZHUuYXWC
CQDgRXhbyiwqhTAMBgNVHRMEBTADAQH/MA0GCSqGSIb3DQEBBQUAA4GBAAHm1sjt
+DMaKrNXTp7ws8QWmhJq2tvwYiyscXMepNf42+jMEBNA0L7/PV/4EOm0+vyM4P/z
klMyMgaSbNG5r8Zh9p0vVUxfJZ92t5b0QJNLgW+v3dD84xWBtev+eAYcI3gZoWg6
z7Z2SOYW++UB1vQ5i+Hh5HpqwLWnG5kFPICi
-----END CERTIFICATE-----
