Certificate:
    Data:
        Version: 3 (0x2)
        Serial Number:
            e0:68:d3:e3:b5:70:62:0c
        Signature Algorithm: sha1WithRSAEncryption
        Issuer: CN=someidp.test.fedreg.aaf.edu.au
        Validity
            Not Before: Nov 15 01:25:38 2011 GMT
            Not After : Nov 12 01:25:38 2021 GMT
        Subject: CN=someidp.test.fedreg.aaf.edu.au
        Subject Public Key Info:
            Public Key Algorithm: rsaEncryption
            RSA Public Key: (2048 bit)
                Modulus (2048 bit):
                    00:b3:9b:fb:dc:8f:7f:f8:4d:bf:40:86:2a:15:fa:
                    5c:2a:7f:5f:3e:eb:f2:b6:c6:70:9a:a1:e4:56:4b:
                    2f:b1:2c:a5:98:e5:14:58:70:2c:37:79:b7:67:6a:
                    d0:a6:3a:1c:c4:2e:74:89:fa:62:8e:74:4e:c9:5a:
                    08:48:89:12:20:93:5c:8d:d1:a9:b8:69:8c:58:c5:
                    ca:63:4a:ce:04:02:be:30:a4:5f:b4:be:16:7d:d0:
                    af:eb:66:11:f5:d7:61:ce:a9:66:e4:a0:25:e6:0e:
                    81:af:06:cd:23:bc:6b:1e:8b:ac:0c:d7:ef:a8:1b:
                    35:b3:d0:c0:6a:0b:64:aa:f7:cd:65:7d:ad:7e:9a:
                    27:81:ef:a8:b9:29:56:50:1e:19:b9:21:90:79:3e:
                    da:15:b5:d8:72:90:ff:69:cc:37:f8:e9:25:58:67:
                    b9:cc:87:69:70:b9:e8:7e:04:89:ee:b7:b0:8d:d4:
                    42:64:fb:31:5b:a1:b3:67:60:f6:78:bf:2c:5b:7a:
                    f4:0b:e1:8d:1b:4c:53:57:da:c8:2c:2f:f7:d9:7d:
                    65:1d:77:f5:23:56:5f:fd:9c:b3:b4:af:8c:5e:f5:
                    6c:61:ef:54:51:99:9d:99:0f:f3:82:4d:f1:60:d1:
                    41:4e:33:45:64:e7:a0:71:53:33:7c:73:03:d3:99:
                    97:e5
                Exponent: 65537 (0x10001)
        X509v3 extensions:
            X509v3 Subject Alternative Name: 
                DNS:someidp.test.fedreg.aaf.edu.au
            X509v3 Subject Key Identifier: 
                6E:77:28:D6:9B:64:FE:1C:80:68:39:5A:90:36:34:38:27:29:3A:68
    Signature Algorithm: sha1WithRSAEncryption
        87:de:18:10:7e:13:10:c5:99:7f:d9:f5:b1:6b:97:2a:9b:54:
        8f:61:f5:d0:4f:26:dc:46:35:cb:a4:44:4f:3a:fe:00:eb:3a:
        a9:fe:a7:db:fa:9e:1b:86:e1:d8:17:04:f6:d6:79:2d:ef:bc:
        60:76:40:4b:c7:db:75:76:c8:bf:b7:fc:a4:eb:f2:67:1f:6f:
        19:30:ee:f1:a8:56:2b:8f:b9:9e:38:15:0d:c7:63:91:4c:bc:
        90:2a:4d:0b:80:62:14:36:23:10:a9:34:76:b1:7b:11:89:66:
        04:59:3d:b9:a4:6d:70:35:0c:7e:cd:a8:54:ae:52:ef:dd:a0:
        2b:a3:12:f7:a6:cd:1e:3a:0a:50:97:5c:63:f4:32:7e:02:39:
        41:18:c1:24:e8:ed:99:cb:91:fc:f3:d3:65:7a:df:71:de:f9:
        49:0b:9d:fa:93:f3:31:4b:d1:22:27:cd:b9:3c:2f:58:d5:90:
        41:d6:12:26:77:3b:99:33:2d:24:8b:d3:30:58:c8:1d:3d:d7:
        0a:e6:60:9f:b8:27:91:51:b7:9d:a4:86:a1:89:71:0d:f9:3e:
        19:db:2d:bd:49:d3:c8:67:c5:11:4e:33:93:87:d3:9a:20:62:
        40:b4:1a:d9:37:ba:d5:7a:27:1a:7e:ad:78:f3:b8:c6:5b:52:
        61:8b:c8:98
-----BEGIN CERTIFICATE-----
MIIDITCCAgmgAwIBAgIJAOBo0+O1cGIMMA0GCSqGSIb3DQEBBQUAMCkxJzAlBgNV
BAMTHnNvbWVpZHAudGVzdC5mZWRyZWcuYWFmLmVkdS5hdTAeFw0xMTExMTUwMTI1
MzhaFw0yMTExMTIwMTI1MzhaMCkxJzAlBgNVBAMTHnNvbWVpZHAudGVzdC5mZWRy
ZWcuYWFmLmVkdS5hdTCCASIwDQYJKoZIhvcNAQEBBQADggEPADCCAQoCggEBALOb
+9yPf/hNv0CGKhX6XCp/Xz7r8rbGcJqh5FZLL7EspZjlFFhwLDd5t2dq0KY6HMQu
dIn6Yo50TslaCEiJEiCTXI3RqbhpjFjFymNKzgQCvjCkX7S+Fn3Qr+tmEfXXYc6p
ZuSgJeYOga8GzSO8ax6LrAzX76gbNbPQwGoLZKr3zWV9rX6aJ4HvqLkpVlAeGbkh
kHk+2hW12HKQ/2nMN/jpJVhnucyHaXC56H4Eie63sI3UQmT7MVuhs2dg9ni/LFt6
9AvhjRtMU1fayCwv99l9ZR139SNWX/2cs7SvjF71bGHvVFGZnZkP84JN8WDRQU4z
RWTnoHFTM3xzA9OZl+UCAwEAAaNMMEowKQYDVR0RBCIwIIIec29tZWlkcC50ZXN0
LmZlZHJlZy5hYWYuZWR1LmF1MB0GA1UdDgQWBBRudyjWm2T+HIBoOVqQNjQ4Jyk6
aDANBgkqhkiG9w0BAQUFAAOCAQEAh94YEH4TEMWZf9n1sWuXKptUj2H10E8m3EY1
y6RETzr+AOs6qf6n2/qeG4bh2BcE9tZ5Le+8YHZAS8fbdXbIv7f8pOvyZx9vGTDu
8ahWK4+5njgVDcdjkUy8kCpNC4BiFDYjEKk0drF7EYlmBFk9uaRtcDUMfs2oVK5S
792gK6MS96bNHjoKUJdcY/QyfgI5QRjBJOjtmcuR/PPTZXrfcd75SQud+pPzMUvR
IifNuTwvWNWQQdYSJnc7mTMtJIvTMFjIHT3XCuZgn7gnkVG3naSGoYlxDfk+Gdst
vUnTyGfFEU4zk4fTmiBiQLQa2Te61XonGn6tePO4xltSYYvImA==
-----END CERTIFICATE-----