Certificate:
    Data:
        Version: 3 (0x2)
        Serial Number:
            e0:45:78:5b:ca:2c:2a:86
        Signature Algorithm: sha1WithRSAEncryption
        Issuer: C=AU, ST=QLD, O=Australian Access Federation, OU=Advanced Technical Development, CN=Federation Registry Testing/emailAddress=support@aaf.edu.au
        Validity
            Not Before: Feb 10 00:12:47 2010 GMT
            Not After : Feb 10 00:12:47 2011 GMT
        Subject: C=AU, ST=QLD, L=BRISBANE, O=Australian Access Federation, OU=Advanced Technical Development, CN=someidp.test.fedreg.aaf.edu.au/emailAddress=support@aaf.edu.au
        Subject Public Key Info:
            Public Key Algorithm: rsaEncryption
            RSA Public Key: (1024 bit)
                Modulus (1024 bit):
                    00:d0:ce:d7:d5:f2:0f:cc:3f:9a:7a:67:80:46:94:
                    07:32:d0:9c:9d:8b:bd:1d:2a:b4:0a:fd:b3:eb:b8:
                    a6:12:f9:7d:b4:ab:d7:72:e3:75:8f:16:ab:a7:b1:
                    3f:9a:b4:11:5b:7c:a5:1d:f7:e6:0f:13:b4:d8:d9:
                    c3:58:2a:c4:94:5c:1a:f9:7e:14:0b:9e:47:72:01:
                    d1:12:1c:0e:c7:be:f0:f9:f2:45:ec:df:80:44:8d:
                    15:bf:9c:0e:b8:f6:68:a5:74:85:f5:3d:24:31:b6:
                    7d:5d:5e:52:25:d0:f1:87:4f:1a:cc:66:b9:e8:4b:
                    bc:5c:92:e4:77:79:32:a5:2f
                Exponent: 65537 (0x10001)
        X509v3 extensions:
            X509v3 Basic Constraints: 
                CA:FALSE
            Netscape Comment: 
                OpenSSL Generated Certificate
            X509v3 Subject Key Identifier: 
                B5:42:B2:12:13:A3:3A:75:15:39:5B:9F:90:D8:ED:8B:6B:0A:D3:05
            X509v3 Authority Key Identifier: 
                keyid:82:80:48:0E:0E:CE:22:A6:FE:E0:E4:C2:5F:BA:0F:E1:8D:E9:5E:BD

    Signature Algorithm: sha1WithRSAEncryption
        b6:71:53:f1:c4:52:fa:be:ac:2d:6e:9a:3f:1d:db:8e:c5:23:
        25:b0:74:5c:8f:cd:0a:c3:e0:cb:94:ff:9f:f4:e9:d7:ad:7e:
        d5:a6:d1:95:41:07:20:e4:e2:af:3e:d1:4b:84:14:53:61:e0:
        ef:b0:a9:47:74:ef:1c:fe:48:6d:35:82:22:8e:35:cd:5c:bb:
        d5:cd:3b:c7:61:11:6a:14:fd:15:18:94:6b:11:2e:d7:44:5c:
        f6:02:58:02:5d:26:90:c4:4c:68:87:a2:05:fb:96:73:73:38:
        c3:86:8c:33:d7:71:d8:07:c2:24:b6:9d:85:d6:d0:d7:bb:24:
        0f:8b
-----BEGIN CERTIFICATE-----
MIIDeTCCAuKgAwIBAgIJAOBFeFvKLCqGMA0GCSqGSIb3DQEBBQUAMIG0MQswCQYD
VQQGEwJBVTEMMAoGA1UECBMDUUxEMSUwIwYDVQQKExxBdXN0cmFsaWFuIEFjY2Vz
cyBGZWRlcmF0aW9uMScwJQYDVQQLEx5BZHZhbmNlZCBUZWNobmljYWwgRGV2ZWxv
cG1lbnQxJDAiBgNVBAMTG0ZlZGVyYXRpb24gUmVnaXN0cnkgVGVzdGluZzEhMB8G
CSqGSIb3DQEJARYSc3VwcG9ydEBhYWYuZWR1LmF1MB4XDTEwMDIxMDAwMTI0N1oX
DTExMDIxMDAwMTI0N1owgcoxCzAJBgNVBAYTAkFVMQwwCgYDVQQIEwNRTEQxETAP
BgNVBAcTCEJSSVNCQU5FMSUwIwYDVQQKExxBdXN0cmFsaWFuIEFjY2VzcyBGZWRl
cmF0aW9uMScwJQYDVQQLEx5BZHZhbmNlZCBUZWNobmljYWwgRGV2ZWxvcG1lbnQx
JzAlBgNVBAMTHnNvbWVpZHAudGVzdC5mZWRyZWcuYWFmLmVkdS5hdTEhMB8GCSqG
SIb3DQEJARYSc3VwcG9ydEBhYWYuZWR1LmF1MIGfMA0GCSqGSIb3DQEBAQUAA4GN
ADCBiQKBgQDQztfV8g/MP5p6Z4BGlAcy0Jydi70dKrQK/bPruKYS+X20q9dy43WP
FqunsT+atBFbfKUd9+YPE7TY2cNYKsSUXBr5fhQLnkdyAdESHA7HvvD58kXs34BE
jRW/nA649mildIX1PSQxtn1dXlIl0PGHTxrMZrnoS7xckuR3eTKlLwIDAQABo3sw
eTAJBgNVHRMEAjAAMCwGCWCGSAGG+EIBDQQfFh1PcGVuU1NMIEdlbmVyYXRlZCBD
ZXJ0aWZpY2F0ZTAdBgNVHQ4EFgQUtUKyEhOjOnUVOVufkNjti2sK0wUwHwYDVR0j
BBgwFoAUgoBIDg7OIqb+4OTCX7oP4Y3pXr0wDQYJKoZIhvcNAQEFBQADgYEAtnFT
8cRS+r6sLW6aPx3bjsUjJbB0XI/NCsPgy5T/n/Tp161+1abRlUEHIOTirz7RS4QU
U2Hg77CpR3TvHP5IbTWCIo41zVy71c07x2ERahT9FRiUaxEu10Rc9gJYAl0mkMRM
aIeiBfuWc3M4w4aMM9dx2AfCJLadhdbQ17skD4s=
-----END CERTIFICATE-----
